target datalayout = "e-m:e-p270:32:32-p271:32:32-p272:64:64-i64:64-i128:128-f80:128-n8:16:32:64-S128"
target triple = "x86_64-pc-linux-gnu"

@.str.8 = private unnamed_addr constant [2 x i8] c"N\00", align 1
@.str.9 = private unnamed_addr constant [2 x i8] c"S\00", align 1
@.str.10 = private unnamed_addr constant [18 x i8] c"%s %02d\C2\B0 %06.3f'\00", align 1

; Function Attrs: nounwind uwtable
define ptr @dt_util_latitude_str(float noundef %0) #0 {
  %2 = alloca ptr, align 8
  %3 = alloca float, align 4
  %4 = alloca ptr, align 8
  %5 = alloca float, align 4
  %6 = alloca float, align 4
  %7 = alloca i32, align 4
  store float %0, ptr %3, align 4, !tbaa !45
  call void @llvm.lifetime.start.p0(i64 8, ptr %4) #18
  store ptr @.str.8, ptr %4, align 8, !tbaa !6
  call void @llvm.lifetime.start.p0(i64 4, ptr %5) #18
  call void @llvm.lifetime.start.p0(i64 4, ptr %6) #18
  %8 = load float, ptr %3, align 4, !tbaa !45
  %9 = call i1 @llvm.is.fpclass.f32(float %8, i32 3)
  br i1 %9, label %10, label %11

10:                                               ; preds = %1
  store ptr null, ptr %2, align 8
  store i32 1, ptr %7, align 4
  br label %27

11:                                               ; preds = %1
  %12 = load float, ptr %3, align 4, !tbaa !45
  %13 = fcmp reassoc nsz arcp contract afn olt float %12, 0.000000e+00
  br i1 %13, label %14, label %17

14:                                               ; preds = %11
  %15 = load float, ptr %3, align 4, !tbaa !45
  %16 = call reassoc nsz arcp contract afn float @llvm.fabs.f32(float %15)
  store float %16, ptr %3, align 4, !tbaa !45
  store ptr @.str.9, ptr %4, align 8, !tbaa !6
  br label %17

17:                                               ; preds = %14, %11
  %18 = load float, ptr %3, align 4, !tbaa !45
  %19 = call reassoc nsz arcp contract afn float @modff(float noundef %18, ptr noundef %5) #18
  store float %19, ptr %6, align 4, !tbaa !45
  %20 = load ptr, ptr %4, align 8, !tbaa !6
  %21 = load float, ptr %5, align 4, !tbaa !45
  %22 = fptosi float %21 to i32
  %23 = load float, ptr %6, align 4, !tbaa !45
  %24 = fpext reassoc nsz arcp contract afn float %23 to double
  %25 = fmul reassoc nsz arcp contract afn double %24, 6.000000e+01
  %26 = call noalias ptr (ptr, ...) @g_strdup_printf(ptr noundef @.str.10, ptr noundef %20, i32 noundef %22, double noundef %25)
  store ptr %26, ptr %2, align 8
  store i32 1, ptr %7, align 4
  br label %27

27:                                               ; preds = %17, %10
  call void @llvm.lifetime.end.p0(i64 4, ptr %6) #18
  call void @llvm.lifetime.end.p0(i64 4, ptr %5) #18
  call void @llvm.lifetime.end.p0(i64 8, ptr %4) #18
  %28 = load ptr, ptr %2, align 8
  ret ptr %28
}